target datalayout = "e-m:e-p270:32:32-p271:32:32-p272:64:64-i64:64-i128:128-f80:128-n8:16:32:64-S128"
target triple = "x86_64-pc-linux-gnu"

%struct._typeobject = type { %struct.PyVarObject, ptr, i64, i64, ptr, i64, ptr, ptr, ptr, ptr, ptr, ptr, ptr, ptr, ptr, ptr, ptr, ptr, ptr, i64, ptr, ptr, ptr, ptr, i64, ptr, ptr, ptr, ptr, ptr, ptr, ptr, ptr, ptr, i64, ptr, ptr, ptr, ptr, ptr, ptr, ptr, ptr, ptr, ptr, ptr, i32, ptr, ptr, i8, i16 }
%struct.PyVarObject = type { %struct._object, i64 }
%struct._object = type { %union.anon, ptr }
%union.anon = type { i64 }
%struct.PyDescrObject = type { %struct._object, ptr, ptr, ptr }
%struct.PyMethodDescrObject = type { %struct.PyDescrObject, ptr, ptr }
%struct.PyMethodDef = type { ptr, ptr, i32, ptr }

@.str.12 = private unnamed_addr constant [2 x i8] c"?\00", align 1
@PyExc_TypeError = external global ptr, align 8
@.str.28 = private unnamed_addr constant [67 x i8] c"descriptor '%V' for type '%.100s' needs either an object or a type\00", align 1
@.str.29 = private unnamed_addr constant [72 x i8] c"descriptor '%V' for type '%.100s' needs a type, not a '%.100s' as arg 2\00", align 1
@.str.30 = private unnamed_addr constant [69 x i8] c"descriptor '%V' requires a subtype of '%.100s' but received '%.100s'\00", align 1

; Function Attrs: inlinehint nounwind uwtable
define internal i32 @PyType_HasFeature(ptr noundef %0, i64 noundef %1) #3 {
  %3 = alloca ptr, align 8
  %4 = alloca i64, align 8
  %5 = alloca i64, align 8
  store ptr %0, ptr %3, align 8, !tbaa !33
  store i64 %1, ptr %4, align 8, !tbaa !32
  call void @llvm.lifetime.start.p0(i64 8, ptr %5) #6
  %6 = load ptr, ptr %3, align 8, !tbaa !33
  %7 = getelementptr inbounds nuw %struct._typeobject, ptr %6, i32 0, i32 19
  %8 = load i64, ptr %7, align 8, !tbaa !160
  store i64 %8, ptr %5, align 8, !tbaa !32
  %9 = load i64, ptr %5, align 8, !tbaa !32
  %10 = load i64, ptr %4, align 8, !tbaa !32
  %11 = and i64 %9, %10
  %12 = icmp ne i64 %11, 0
  %13 = zext i1 %12 to i32
  call void @llvm.lifetime.end.p0(i64 8, ptr %5) #6
  ret i32 %13
}

; Function Attrs: inlinehint nounwind uwtable
define internal i32 @PyType_Check(ptr noundef %0) #3 {
  %2 = alloca ptr, align 8
  store ptr %0, ptr %2, align 8, !tbaa !4
  %3 = load ptr, ptr %2, align 8, !tbaa !4
  %4 = call ptr @_Py_TYPE(ptr noundef %3)
  %5 = call i32 @PyType_HasFeature(ptr noundef %4, i64 noundef 2147483648)
  ret i32 %5
}

; Function Attrs: nounwind uwtable
define internal ptr @descr_name(ptr noundef %0) #0 {
  %2 = alloca ptr, align 8
  %3 = alloca ptr, align 8
  store ptr %0, ptr %3, align 8, !tbaa !9
  %4 = load ptr, ptr %3, align 8, !tbaa !9
  %5 = getelementptr inbounds nuw %struct.PyDescrObject, ptr %4, i32 0, i32 2
  %6 = load ptr, ptr %5, align 8, !tbaa !14
  %7 = icmp ne ptr %6, null
  br i1 %7, label %8, label %19

8:                                                ; preds = %1
  %9 = load ptr, ptr %3, align 8, !tbaa !9
  %10 = getelementptr inbounds nuw %struct.PyDescrObject, ptr %9, i32 0, i32 2
  %11 = load ptr, ptr %10, align 8, !tbaa !14
  %12 = call ptr @_Py_TYPE(ptr noundef %11)
  %13 = call i32 @PyType_HasFeature(ptr noundef %12, i64 noundef 268435456)
  %14 = icmp ne i32 %13, 0
  br i1 %14, label %15, label %19

15:                                               ; preds = %8
  %16 = load ptr, ptr %3, align 8, !tbaa !9
  %17 = getelementptr inbounds nuw %struct.PyDescrObject, ptr %16, i32 0, i32 2
  %18 = load ptr, ptr %17, align 8, !tbaa !14
  store ptr %18, ptr %2, align 8
  br label %20

19:                                               ; preds = %8, %1
  store ptr null, ptr %2, align 8
  br label %20

20:                                               ; preds = %19, %15
  %21 = load ptr, ptr %2, align 8
  ret ptr %21
}

; Function Attrs: inlinehint nounwind uwtable
define internal ptr @_Py_TYPE(ptr noundef %0) #3 {
  %2 = alloca ptr, align 8
  store ptr %0, ptr %2, align 8, !tbaa !4
  %3 = load ptr, ptr %2, align 8, !tbaa !4
  %4 = getelementptr inbounds nuw %struct._object, ptr %3, i32 0, i32 1
  %5 = load ptr, ptr %4, align 8, !tbaa !64
  ret ptr %5
}

; Function Attrs: nounwind uwtable
define internal ptr @classmethod_get(ptr noundef %0, ptr noundef %1, ptr noundef %2) #0 {
  %4 = alloca ptr, align 8
  %5 = alloca ptr, align 8
  %6 = alloca ptr, align 8
  %7 = alloca ptr, align 8
  %8 = alloca ptr, align 8
  %9 = alloca i32, align 4
  %10 = alloca ptr, align 8
  store ptr %0, ptr %5, align 8, !tbaa !4
  store ptr %1, ptr %6, align 8, !tbaa !4
  store ptr %2, ptr %7, align 8, !tbaa !4
  call void @llvm.lifetime.start.p0(i64 8, ptr %8) #6
  %11 = load ptr, ptr %5, align 8, !tbaa !4
  store ptr %11, ptr %8, align 8, !tbaa !9
  %12 = load ptr, ptr %7, align 8, !tbaa !4
  %13 = icmp eq ptr %12, null
  br i1 %13, label %14, label %31

14:                                               ; preds = %3
  %15 = load ptr, ptr %6, align 8, !tbaa !4
  %16 = icmp ne ptr %15, null
  br i1 %16, label %17, label %20

17:                                               ; preds = %14
  %18 = load ptr, ptr %6, align 8, !tbaa !4
  %19 = call ptr @_Py_TYPE(ptr noundef %18)
  store ptr %19, ptr %7, align 8, !tbaa !4
  br label %30

20:                                               ; preds = %14
  %21 = load ptr, ptr @PyExc_TypeError, align 8, !tbaa !4
  %22 = load ptr, ptr %8, align 8, !tbaa !9
  %23 = call ptr @descr_name(ptr noundef %22)
  %24 = load ptr, ptr %8, align 8, !tbaa !9
  %25 = getelementptr inbounds nuw %struct.PyDescrObject, ptr %24, i32 0, i32 1
  %26 = load ptr, ptr %25, align 8, !tbaa !10
  %27 = getelementptr inbounds nuw %struct._typeobject, ptr %26, i32 0, i32 1
  %28 = load ptr, ptr %27, align 8, !tbaa !25
  %29 = call ptr (ptr, ptr, ...) @PyErr_Format(ptr noundef %21, ptr noundef @.str.28, ptr noundef %23, ptr noundef @.str.12, ptr noundef %28)
  store ptr null, ptr %4, align 8
  store i32 1, ptr %9, align 4
  br label %89

30:                                               ; preds = %17
  br label %31

31:                                               ; preds = %30, %3
  %32 = load ptr, ptr %7, align 8, !tbaa !4
  %33 = call i32 @PyType_Check(ptr noundef %32)
  %34 = icmp ne i32 %33, 0
  br i1 %34, label %49, label %35

35:                                               ; preds = %31
  %36 = load ptr, ptr @PyExc_TypeError, align 8, !tbaa !4
  %37 = load ptr, ptr %8, align 8, !tbaa !9
  %38 = call ptr @descr_name(ptr noundef %37)
  %39 = load ptr, ptr %8, align 8, !tbaa !9
  %40 = getelementptr inbounds nuw %struct.PyDescrObject, ptr %39, i32 0, i32 1
  %41 = load ptr, ptr %40, align 8, !tbaa !10
  %42 = getelementptr inbounds nuw %struct._typeobject, ptr %41, i32 0, i32 1
  %43 = load ptr, ptr %42, align 8, !tbaa !25
  %44 = load ptr, ptr %7, align 8, !tbaa !4
  %45 = call ptr @_Py_TYPE(ptr noundef %44)
  %46 = getelementptr inbounds nuw %struct._typeobject, ptr %45, i32 0, i32 1
  %47 = load ptr, ptr %46, align 8, !tbaa !25
  %48 = call ptr (ptr, ptr, ...) @PyErr_Format(ptr noundef %36, ptr noundef @.str.29, ptr noundef %38, ptr noundef @.str.12, ptr noundef %43, ptr noundef %47)
  store ptr null, ptr %4, align 8
  store i32 1, ptr %9, align 4
  br label %89

49:                                               ; preds = %31
  %50 = load ptr, ptr %7, align 8, !tbaa !4
  %51 = load ptr, ptr %8, align 8, !tbaa !9
  %52 = getelementptr inbounds nuw %struct.PyDescrObject, ptr %51, i32 0, i32 1
  %53 = load ptr, ptr %52, align 8, !tbaa !10
  %54 = call i32 @PyType_IsSubtype(ptr noundef %50, ptr noundef %53)
  %55 = icmp ne i32 %54, 0
  br i1 %55, label %69, label %56

56:                                               ; preds = %49
  %57 = load ptr, ptr @PyExc_TypeError, align 8, !tbaa !4
  %58 = load ptr, ptr %8, align 8, !tbaa !9
  %59 = call ptr @descr_name(ptr noundef %58)
  %60 = load ptr, ptr %8, align 8, !tbaa !9
  %61 = getelementptr inbounds nuw %struct.PyDescrObject, ptr %60, i32 0, i32 1
  %62 = load ptr, ptr %61, align 8, !tbaa !10
  %63 = getelementptr inbounds nuw %struct._typeobject, ptr %62, i32 0, i32 1
  %64 = load ptr, ptr %63, align 8, !tbaa !25
  %65 = load ptr, ptr %7, align 8, !tbaa !4
  %66 = getelementptr inbounds nuw %struct._typeobject, ptr %65, i32 0, i32 1
  %67 = load ptr, ptr %66, align 8, !tbaa !25
  %68 = call ptr (ptr, ptr, ...) @PyErr_Format(ptr noundef %57, ptr noundef @.str.30, ptr noundef %59, ptr noundef @.str.12, ptr noundef %64, ptr noundef %67)
  store ptr null, ptr %4, align 8
  store i32 1, ptr %9, align 4
  br label %89

69:                                               ; preds = %49
  call void @llvm.lifetime.start.p0(i64 8, ptr %10) #6
  store ptr null, ptr %10, align 8, !tbaa !33
  %70 = load ptr, ptr %8, align 8, !tbaa !9
  %71 = getelementptr inbounds nuw %struct.PyMethodDescrObject, ptr %70, i32 0, i32 1
  %72 = load ptr, ptr %71, align 8, !tbaa !18
  %73 = getelementptr inbounds nuw %struct.PyMethodDef, ptr %72, i32 0, i32 2
  %74 = load i32, ptr %73, align 8, !tbaa !21
  %75 = and i32 %74, 512
  %76 = icmp ne i32 %75, 0
  br i1 %76, label %77, label %82

77:                                               ; preds = %69
  %78 = load ptr, ptr %8, align 8, !tbaa !9
  %79 = getelementptr inbounds nuw %struct.PyMethodDescrObject, ptr %78, i32 0, i32 0
  %80 = getelementptr inbounds nuw %struct.PyDescrObject, ptr %79, i32 0, i32 1
  %81 = load ptr, ptr %80, align 8, !tbaa !24
  store ptr %81, ptr %10, align 8, !tbaa !33
  br label %82

82:                                               ; preds = %77, %69
  %83 = load ptr, ptr %8, align 8, !tbaa !9
  %84 = getelementptr inbounds nuw %struct.PyMethodDescrObject, ptr %83, i32 0, i32 1
  %85 = load ptr, ptr %84, align 8, !tbaa !18
  %86 = load ptr, ptr %7, align 8, !tbaa !4
  %87 = load ptr, ptr %10, align 8, !tbaa !33
  %88 = call ptr @PyCMethod_New(ptr noundef %85, ptr noundef %86, ptr noundef null, ptr noundef %87)
  store ptr %88, ptr %4, align 8
  store i32 1, ptr %9, align 4
  call void @llvm.lifetime.end.p0(i64 8, ptr %10) #6
  br label %89

89:                                               ; preds = %82, %56, %35, %20
  call void @llvm.lifetime.end.p0(i64 8, ptr %8) #6
  %90 = load ptr, ptr %4, align 8
  ret ptr %90
}