; Function Attrs: nounwind uwtable
define internal ptr @classmethod_get(ptr noundef readonly captures(none) %0, ptr noundef readonly %1, ptr noundef %2) #0 {
  %4 = icmp eq ptr %2, null
  br i1 %4, label %5, label %20

5:                                                ; preds = %3
  %.not = icmp eq ptr %1, null
  br i1 %.not, label %8, label %6

6:                                                ; preds = %5
  %7 = getelementptr i8, ptr %1, i64 8
  %.val = load ptr, ptr %7, align 8, !tbaa !19
  br label %20

8:                                                ; preds = %5
  %9 = load ptr, ptr @PyExc_TypeError, align 8, !tbaa !30
  %10 = getelementptr i8, ptr %0, i64 24
  %.val28 = load ptr, ptr %10, align 8, !tbaa !17
  %.not.i = icmp eq ptr %.val28, null
  br i1 %.not.i, label %descr_name.exit, label %11

11:                                               ; preds = %8
  %12 = getelementptr i8, ptr %.val28, i64 8
  %.val.i = load ptr, ptr %12, align 8, !tbaa !19
  %13 = getelementptr i8, ptr %.val.i, i64 168
  %.val6.i = load i64, ptr %13, align 8, !tbaa !20
  %14 = and i64 %.val6.i, 268435456
  %.not5.i = icmp eq i64 %14, 0
  %spec.select.i = select i1 %.not5.i, ptr null, ptr %.val28
  br label %descr_name.exit

descr_name.exit:                                  ; preds = %8, %11
  %.0.i = phi ptr [ null, %8 ], [ %spec.select.i, %11 ]
  %15 = getelementptr inbounds nuw i8, ptr %0, i64 16
  %16 = load ptr, ptr %15, align 8, !tbaa !10
  %17 = getelementptr inbounds nuw i8, ptr %16, i64 24
  %18 = load ptr, ptr %17, align 8, !tbaa !29
  %19 = tail call ptr (ptr, ptr, ...) @PyErr_Format(ptr noundef %9, ptr noundef nonnull @.str.28, ptr noundef %.0.i, ptr noundef nonnull @.str.12, ptr noundef %18) #9
  br label %65

20:                                               ; preds = %6, %3
  %.022 = phi ptr [ %.val, %6 ], [ %2, %3 ]
  %21 = getelementptr i8, ptr %.022, i64 8
  %.022.val31 = load ptr, ptr %21, align 8, !tbaa !19
  %22 = getelementptr i8, ptr %.022.val31, i64 168
  %.022.val31.val = load i64, ptr %22, align 8, !tbaa !20
  %23 = and i64 %.022.val31.val, 2147483648
  %.not46 = icmp eq i64 %23, 0
  br i1 %.not46, label %24, label %38

24:                                               ; preds = %20
  %25 = load ptr, ptr @PyExc_TypeError, align 8, !tbaa !30
  %26 = getelementptr i8, ptr %0, i64 24
  %.val29 = load ptr, ptr %26, align 8, !tbaa !17
  %.not.i32 = icmp eq ptr %.val29, null
  br i1 %.not.i32, label %descr_name.exit38, label %27

27:                                               ; preds = %24
  %28 = getelementptr i8, ptr %.val29, i64 8
  %.val.i33 = load ptr, ptr %28, align 8, !tbaa !19
  %29 = getelementptr i8, ptr %.val.i33, i64 168
  %.val6.i34 = load i64, ptr %29, align 8, !tbaa !20
  %30 = and i64 %.val6.i34, 268435456
  %.not5.i35 = icmp eq i64 %30, 0
  %spec.select.i36 = select i1 %.not5.i35, ptr null, ptr %.val29
  br label %descr_name.exit38

descr_name.exit38:                                ; preds = %24, %27
  %.0.i37 = phi ptr [ null, %24 ], [ %spec.select.i36, %27 ]
  %31 = getelementptr inbounds nuw i8, ptr %0, i64 16
  %32 = load ptr, ptr %31, align 8, !tbaa !10
  %33 = getelementptr inbounds nuw i8, ptr %32, i64 24
  %34 = load ptr, ptr %33, align 8, !tbaa !29
  %35 = getelementptr inbounds nuw i8, ptr %.022.val31, i64 24
  %36 = load ptr, ptr %35, align 8, !tbaa !29
  %37 = tail call ptr (ptr, ptr, ...) @PyErr_Format(ptr noundef %25, ptr noundef nonnull @.str.29, ptr noundef %.0.i37, ptr noundef nonnull @.str.12, ptr noundef %34, ptr noundef %36) #9
  br label %65

38:                                               ; preds = %20
  %39 = getelementptr inbounds nuw i8, ptr %0, i64 16
  %40 = load ptr, ptr %39, align 8, !tbaa !10
  %41 = tail call i32 @PyType_IsSubtype(ptr noundef nonnull %.022, ptr noundef %40) #9
  %.not26 = icmp eq i32 %41, 0
  br i1 %.not26, label %42, label %55

42:                                               ; preds = %38
  %43 = load ptr, ptr @PyExc_TypeError, align 8, !tbaa !30
  %44 = getelementptr i8, ptr %0, i64 24
  %.val30 = load ptr, ptr %44, align 8, !tbaa !17
  %.not.i39 = icmp eq ptr %.val30, null
  br i1 %.not.i39, label %descr_name.exit45, label %45

45:                                               ; preds = %42
  %46 = getelementptr i8, ptr %.val30, i64 8
  %.val.i40 = load ptr, ptr %46, align 8, !tbaa !19
  %47 = getelementptr i8, ptr %.val.i40, i64 168
  %.val6.i41 = load i64, ptr %47, align 8, !tbaa !20
  %48 = and i64 %.val6.i41, 268435456
  %.not5.i42 = icmp eq i64 %48, 0
  %spec.select.i43 = select i1 %.not5.i42, ptr null, ptr %.val30
  br label %descr_name.exit45

descr_name.exit45:                                ; preds = %42, %45
  %.0.i44 = phi ptr [ null, %42 ], [ %spec.select.i43, %45 ]
  %49 = load ptr, ptr %39, align 8, !tbaa !10
  %50 = getelementptr inbounds nuw i8, ptr %49, i64 24
  %51 = load ptr, ptr %50, align 8, !tbaa !29
  %52 = getelementptr inbounds nuw i8, ptr %.022, i64 24
  %53 = load ptr, ptr %52, align 8, !tbaa !29
  %54 = tail call ptr (ptr, ptr, ...) @PyErr_Format(ptr noundef %43, ptr noundef nonnull @.str.30, ptr noundef %.0.i44, ptr noundef nonnull @.str.12, ptr noundef %51, ptr noundef %53) #9
  br label %65

55:                                               ; preds = %38
  %56 = getelementptr inbounds nuw i8, ptr %0, i64 40
  %57 = load ptr, ptr %56, align 8, !tbaa !31
  %58 = getelementptr inbounds nuw i8, ptr %57, i64 16
  %59 = load i32, ptr %58, align 8, !tbaa !33
  %60 = and i32 %59, 512
  %.not27 = icmp eq i32 %60, 0
  br i1 %.not27, label %63, label %61

61:                                               ; preds = %55
  %62 = load ptr, ptr %39, align 8, !tbaa !35
  br label %63

63:                                               ; preds = %61, %55
  %.0 = phi ptr [ %62, %61 ], [ null, %55 ]
  %64 = tail call ptr @PyCMethod_New(ptr noundef nonnull %57, ptr noundef nonnull %.022, ptr noundef null, ptr noundef %.0) #9
  br label %65

65:                                               ; preds = %63, %descr_name.exit45, %descr_name.exit38, %descr_name.exit
  %.021 = phi ptr [ %64, %63 ], [ null, %descr_name.exit45 ], [ null, %descr_name.exit38 ], [ null, %descr_name.exit ]
  ret ptr %.021
}